; Function Attrs: nounwind sspstrong uwtable
define internal i64 @int_upto_size(i64 noundef %0, i64 noundef %1, i64 %2) #2 {
  %4 = inttoptr i64 %1 to ptr
  %5 = load i64, ptr %4, align 8, !tbaa !11
  %6 = and i64 %5, 8192
  %.not.i.i = icmp eq i64 %6, 0
  br i1 %.not.i.i, label %9, label %7

7:                                                ; preds = %3
  %8 = getelementptr inbounds nuw i8, ptr %4, i64 16
  br label %RARRAY_AREF.exit

9:                                                ; preds = %3
  %10 = getelementptr inbounds nuw i8, ptr %4, i64 32
  %11 = load ptr, ptr %10, align 8, !tbaa !20
  br label %RARRAY_AREF.exit

RARRAY_AREF.exit:                                 ; preds = %7, %9
  %.0.i.i = phi ptr [ %8, %7 ], [ %11, %9 ]
  %12 = load i64, ptr %.0.i.i, align 8, !tbaa !7
  %13 = tail call i64 @ruby_num_interval_step_size(i64 noundef %0, i64 noundef %12, i64 noundef 3, i32 noundef 0)
  ret i64 %13
}